(dp1
S'group_description'
p2
(dp3
S'length'
p4
I200
sS'unique'
p5
I00
sS'sortable'
p6
I3
sS'sql'
p7
S'CHAR(200)'
p8
sS'notnull'
p9
I00
sS'type'
p10
S'string'
p11
ssS'id'
p12
(dp13
g4
I512
sg5
I00
sg6
I1
sg7
S'INTEGER PRIMARY KEY AUTOINCREMENT'
p14
sg9
I00
sg10
S'id'
p15
ssS'tg_group'
p16
(dp17
g4
I17
sg5
I01
sg6
I2
sg7
S'CHAR(17) UNIQUE'
p18
sg9
I00
sg10
g11
ss.