(dp1
S'group_description'
p2
(dp3
S'length'
p4
I17
sS'unique'
p5
I00
sS'sortable'
p6
I2
sS'sql'
p7
S'CHAR(17)'
p8
sS'notnull'
p9
I00
sS'type'
p10
S'string'
p11
ssS'tg_group'
p12
(dp13
g4
I17
sg5
I01
sg6
I1
sg7
S'CHAR(17) NOT NULL UNIQUE'
p14
sg9
I01
sg10
g11
ss.